; Function Attrs: mustprogress nofree norecurse nosync nounwind willreturn memory(read, inaccessiblemem: none) uwtable
define internal range(i32 -1, 2) i32 @TocEntrySizeCompareQsort(ptr noundef readonly captures(none) %0, ptr noundef readonly captures(none) %1) #15 {
  %3 = load ptr, ptr %0, align 8
  %4 = load ptr, ptr %1, align 8
  %5 = getelementptr inbounds nuw i8, ptr %3, i64 160
  %6 = load i64, ptr %5, align 8
  %7 = getelementptr inbounds nuw i8, ptr %4, i64 160
  %8 = load i64, ptr %7, align 8
  %9 = icmp sgt i64 %6, %8
  br i1 %9, label %20, label %10

10:                                               ; preds = %2
  %11 = icmp slt i64 %6, %8
  br i1 %11, label %20, label %12

12:                                               ; preds = %10
  %13 = getelementptr inbounds nuw i8, ptr %3, i64 24
  %14 = load i32, ptr %13, align 8
  %15 = getelementptr inbounds nuw i8, ptr %4, i64 24
  %16 = load i32, ptr %15, align 8
  %17 = icmp slt i32 %14, %16
  br i1 %17, label %20, label %18

18:                                               ; preds = %12
  %19 = icmp sgt i32 %14, %16
  %. = zext i1 %19 to i32
  br label %20

20:                                               ; preds = %18, %12, %10, %2
  %.0 = phi i32 [ -1, %2 ], [ 1, %10 ], [ -1, %12 ], [ %., %18 ]
  ret i32 %.0
}